target datalayout = "e-m:e-p270:32:32-p271:32:32-p272:64:64-i64:64-i128:128-f80:128-n8:16:32:64-S128"
target triple = "x86_64-pc-linux-gnu"

%struct.Curl_easy = type { i32, i64, ptr, ptr, ptr, %struct.Curl_llist_element, %struct.Curl_llist_element, i32, i32, %struct.Curl_message, %struct.easy_pollset, %struct.Names, ptr, ptr, ptr, %struct.SingleRequest, %struct.UserDefined, ptr, ptr, %struct.Progress, %struct.UrlState, ptr, %struct.PureInfo, %struct.curl_tlssessioninfo }
%struct.Curl_llist_element = type { ptr, ptr, ptr }
%struct.Curl_message = type { %struct.Curl_llist_element, %struct.CURLMsg }
%struct.CURLMsg = type { i32, ptr, %union.anon.0 }
%union.anon.0 = type { ptr }
%struct.easy_pollset = type { [5 x i32], i32, [5 x i8] }
%struct.Names = type { ptr, i32 }
%struct.SingleRequest = type <{ i64, i64, i64, i64, i64, %struct.curltime, i32, i32, i32, i32, i64, i32, i32, %struct.curltime, i32, i32, ptr, i64, i64, ptr, ptr, i64, ptr, %union.anon.1, ptr, [2 x i8], i8, i16, [3 x i8] }>
%struct.curltime = type { i64, i32 }
%union.anon.1 = type { ptr }
%struct.UserDefined = type <{ ptr, ptr, ptr, ptr, ptr, ptr, i16, [6 x i8], i64, i64, i64, ptr, ptr, i64, i16, i16, [4 x i8], ptr, ptr, ptr, ptr, ptr, ptr, ptr, ptr, ptr, ptr, ptr, ptr, ptr, ptr, ptr, ptr, ptr, ptr, ptr, ptr, ptr, ptr, ptr, i32, i32, i32, i32, i64, i64, i64, i64, i64, i64, i64, i64, ptr, ptr, %struct.curl_mimepart, ptr, ptr, i64, i8, i8, i8, [5 x i8], %struct.ssl_config_data, %struct.ssl_config_data, ptr, i16, i8, i8, [4 x i8], %struct.ssl_general_config, i32, i32, i32, [4 x i8], ptr, ptr, i8, [7 x i8], i64, i8, i8, i8, i8, i32, ptr, ptr, ptr, i8, i8, [2 x i8], i32, [80 x ptr], [8 x ptr], i32, i32, i32, [4 x i8], ptr, ptr, ptr, ptr, ptr, i8, [3 x i8], i32, i32, [4 x i8], i64, %struct.Curl_data_priority, ptr, ptr, i64, ptr, ptr, ptr, ptr, ptr, i8, [3 x i8], i32, i8, i8, i56, [6 x i8] }>
%struct.curl_mimepart = type { ptr, ptr, i32, i32, ptr, ptr, ptr, ptr, ptr, ptr, ptr, ptr, ptr, ptr, ptr, i64, %struct.mime_state, ptr, %struct.mime_encoder_state, i64 }
%struct.mime_state = type { i32, ptr, i64 }
%struct.mime_encoder_state = type { i64, i64, i64, [256 x i8] }
%struct.ssl_config_data = type { %struct.ssl_primary_config, i64, ptr, ptr, ptr, ptr, ptr, ptr, ptr, i8 }
%struct.ssl_primary_config = type { ptr, ptr, ptr, ptr, ptr, ptr, ptr, ptr, ptr, ptr, ptr, ptr, i8, i32, i8, i8 }
%struct.ssl_general_config = type { i64, i32 }
%struct.Curl_data_priority = type { ptr, ptr, i32, i8 }
%struct.Progress = type { i64, i64, i64, i64, i64, i64, i32, i32, i64, i64, i64, i64, i64, i64, i64, i64, i64, i64, %struct.curltime, %struct.curltime, %struct.curltime, %struct.curltime, %struct.curltime, i64, %struct.curltime, i64, [6 x i64], [6 x %struct.curltime], i32, i8 }
%struct.UrlState = type { ptr, %struct.curltime, i64, i64, %struct.dynbuf, ptr, ptr, ptr, i64, ptr, i32, i32, i32, ptr, i64, [3 x %struct.tempbuf], i32, i32, ptr, i64, i32, ptr, %struct.digestdata, %struct.digestdata, %struct.auth, %struct.auth, %struct.Curl_async, ptr, %struct.curltime, %struct.Curl_tree, %struct.Curl_llist, [15 x %struct.time_node], ptr, i8, i64, ptr, i64, i64, %struct.Curl_data_priority, ptr, ptr, ptr, %struct.urlpieces, ptr, ptr, ptr, ptr, ptr, i64, %struct.dynbuf, %struct.Curl_llist, [2 x %struct.curl_header], ptr, i32, ptr, %struct.dynamically_allocated_data, i8, i8, i8, i8, i24 }
%struct.tempbuf = type { %struct.dynbuf, i32, i8 }
%struct.digestdata = type { ptr, ptr, ptr, ptr, ptr, ptr, i32, i8, i8 }
%struct.auth = type { i64, i64, i64, i8 }
%struct.Curl_async = type { ptr, ptr, ptr, ptr, i32, i32, i8 }
%struct.Curl_tree = type { ptr, ptr, ptr, ptr, %struct.curltime, ptr }
%struct.time_node = type { %struct.Curl_llist_element, %struct.curltime, i32 }
%struct.urlpieces = type { ptr, ptr, ptr, ptr, ptr, ptr, ptr, ptr }
%struct.dynbuf = type { ptr, i64, i64, i64 }
%struct.Curl_llist = type { ptr, ptr, ptr, i64 }
%struct.curl_header = type { ptr, ptr, i64, i64, i32, ptr }
%struct.dynamically_allocated_data = type { ptr, ptr, ptr, ptr, ptr, ptr, ptr, ptr, ptr, ptr, ptr, ptr, ptr, ptr }
%struct.PureInfo = type { i32, i32, i32, i64, i64, i64, i64, i64, ptr, ptr, i64, i32, [46 x i8], i32, i32, [46 x i8], i32, ptr, i32, %struct.curl_certinfo, i32, i8 }
%struct.curl_certinfo = type { i32, ptr }
%struct.curl_tlssessioninfo = type { i32, ptr }
%struct.Curl_hash = type { ptr, ptr, ptr, ptr, i32, i64 }
%struct.hostcache_prune_data = type { i64, i64, i32 }

; Function Attrs: nounwind uwtable
define internal i64 @hostcache_prune(ptr noundef %0, i32 noundef %1, i64 noundef %2) #0 {
  %4 = alloca ptr, align 8
  %5 = alloca i32, align 4
  %6 = alloca i64, align 8
  %7 = alloca %struct.hostcache_prune_data, align 8
  store ptr %0, ptr %4, align 8
  store i32 %1, ptr %5, align 4
  store i64 %2, ptr %6, align 8
  %8 = load i32, ptr %5, align 4
  %9 = getelementptr inbounds %struct.hostcache_prune_data, ptr %7, i32 0, i32 2
  store i32 %8, ptr %9, align 8
  %10 = load i64, ptr %6, align 8
  %11 = getelementptr inbounds %struct.hostcache_prune_data, ptr %7, i32 0, i32 0
  store i64 %10, ptr %11, align 8
  %12 = getelementptr inbounds %struct.hostcache_prune_data, ptr %7, i32 0, i32 1
  store i64 0, ptr %12, align 8
  %13 = load ptr, ptr %4, align 8
  call void @Curl_hash_clean_with_criterium(ptr noundef %13, ptr noundef %7, ptr noundef @hostcache_timestamp_remove)
  %14 = getelementptr inbounds %struct.hostcache_prune_data, ptr %7, i32 0, i32 1
  %15 = load i64, ptr %14, align 8
  ret i64 %15
}

; Function Attrs: nounwind uwtable
define dso_local void @Curl_hostcache_prune(ptr noundef %0) #0 {
  %2 = alloca ptr, align 8
  %3 = alloca i64, align 8
  %4 = alloca i32, align 4
  %5 = alloca i64, align 8
  store ptr %0, ptr %2, align 8
  %6 = load ptr, ptr %2, align 8
  %7 = getelementptr inbounds %struct.Curl_easy, ptr %6, i32 0, i32 16
  %8 = getelementptr inbounds %struct.UserDefined, ptr %7, i32 0, i32 70
  %9 = load i32, ptr %8, align 8
  store i32 %9, ptr %4, align 4
  %10 = load ptr, ptr %2, align 8
  %11 = getelementptr inbounds %struct.Curl_easy, ptr %10, i32 0, i32 11
  %12 = getelementptr inbounds %struct.Names, ptr %11, i32 0, i32 0
  %13 = load ptr, ptr %12, align 8
  %14 = icmp ne ptr %13, null
  br i1 %14, label %16, label %15

15:                                               ; preds = %1
  br label %62

16:                                               ; preds = %1
  %17 = load ptr, ptr %2, align 8
  %18 = getelementptr inbounds %struct.Curl_easy, ptr %17, i32 0, i32 14
  %19 = load ptr, ptr %18, align 8
  %20 = icmp ne ptr %19, null
  br i1 %20, label %21, label %24

21:                                               ; preds = %16
  %22 = load ptr, ptr %2, align 8
  %23 = call i32 @Curl_share_lock(ptr noundef %22, i32 noundef 3, i32 noundef 2)
  br label %24

24:                                               ; preds = %21, %16
  %25 = call i64 @time(ptr noundef %3) #7
  br label %26

26:                                               ; preds = %52, %24
  %27 = load ptr, ptr %2, align 8
  %28 = getelementptr inbounds %struct.Curl_easy, ptr %27, i32 0, i32 11
  %29 = getelementptr inbounds %struct.Names, ptr %28, i32 0, i32 0
  %30 = load ptr, ptr %29, align 8
  %31 = load i32, ptr %4, align 4
  %32 = load i64, ptr %3, align 8
  %33 = call i64 @hostcache_prune(ptr noundef %30, i32 noundef %31, i64 noundef %32)
  store i64 %33, ptr %5, align 8
  %34 = load i64, ptr %5, align 8
  %35 = icmp slt i64 %34, 2147483647
  br i1 %35, label %36, label %39

36:                                               ; preds = %26
  %37 = load i64, ptr %5, align 8
  %38 = trunc i64 %37 to i32
  store i32 %38, ptr %4, align 4
  br label %40

39:                                               ; preds = %26
  store i32 2147483646, ptr %4, align 4
  br label %40

40:                                               ; preds = %39, %36
  br label %41

41:                                               ; preds = %40
  %42 = load i32, ptr %4, align 4
  %43 = icmp ne i32 %42, 0
  br i1 %43, label %44, label %52

44:                                               ; preds = %41
  %45 = load ptr, ptr %2, align 8
  %46 = getelementptr inbounds %struct.Curl_easy, ptr %45, i32 0, i32 11
  %47 = getelementptr inbounds %struct.Names, ptr %46, i32 0, i32 0
  %48 = load ptr, ptr %47, align 8
  %49 = getelementptr inbounds %struct.Curl_hash, ptr %48, i32 0, i32 5
  %50 = load i64, ptr %49, align 8
  %51 = icmp ugt i64 %50, 29999
  br label %52

52:                                               ; preds = %44, %41
  %53 = phi i1 [ false, %41 ], [ %51, %44 ]
  br i1 %53, label %26, label %54, !llvm.loop !5

54:                                               ; preds = %52
  %55 = load ptr, ptr %2, align 8
  %56 = getelementptr inbounds %struct.Curl_easy, ptr %55, i32 0, i32 14
  %57 = load ptr, ptr %56, align 8
  %58 = icmp ne ptr %57, null
  br i1 %58, label %59, label %62

59:                                               ; preds = %54
  %60 = load ptr, ptr %2, align 8
  %61 = call i32 @Curl_share_unlock(ptr noundef %60, i32 noundef 3)
  br label %62

62:                                               ; preds = %59, %54, %15
  ret void
}