; Function Attrs: nounwind uwtable
define dso_local void @Curl_hostcache_prune(ptr noundef %0) local_unnamed_addr #0 {
  %2 = alloca %struct.hostcache_prune_data, align 8
  %3 = alloca i64, align 8
  %4 = getelementptr inbounds nuw i8, ptr %0, i64 1672
  %5 = load i32, ptr %4, align 8
  %6 = getelementptr inbounds nuw i8, ptr %0, i64 176
  %7 = load ptr, ptr %6, align 8
  %.not = icmp eq ptr %7, null
  br i1 %.not, label %31, label %8

8:                                                ; preds = %1
  %9 = getelementptr inbounds nuw i8, ptr %0, i64 208
  %10 = load ptr, ptr %9, align 8
  %.not12 = icmp eq ptr %10, null
  br i1 %.not12, label %13, label %11

11:                                               ; preds = %8
  %12 = tail call i32 @Curl_share_lock(ptr noundef nonnull %0, i32 noundef 3, i32 noundef 2) #12
  br label %13

13:                                               ; preds = %11, %8
  %14 = call i64 @time(ptr noundef nonnull %3) #12
  %15 = getelementptr inbounds nuw i8, ptr %2, i64 16
  %16 = getelementptr inbounds nuw i8, ptr %2, i64 8
  %.pre = load ptr, ptr %6, align 8
  br label %17

17:                                               ; preds = %23, %13
  %18 = phi ptr [ %.pre, %13 ], [ %24, %23 ]
  %.0 = phi i32 [ %5, %13 ], [ %.1, %23 ]
  %19 = load i64, ptr %3, align 8
  call void @llvm.lifetime.start.p0(i64 24, ptr nonnull %2)
  store i32 %.0, ptr %15, align 8
  store i64 %19, ptr %2, align 8
  store i64 0, ptr %16, align 8
  call void @Curl_hash_clean_with_criterium(ptr noundef %18, ptr noundef nonnull %2, ptr noundef nonnull @hostcache_timestamp_remove) #12
  %20 = load i64, ptr %16, align 8
  call void @llvm.lifetime.end.p0(i64 24, ptr nonnull %2)
  %21 = icmp slt i64 %20, 2147483647
  %22 = trunc i64 %20 to i32
  %.1 = select i1 %21, i32 %22, i32 2147483646
  %.not13 = icmp eq i32 %.1, 0
  br i1 %.not13, label %.critedge, label %23

23:                                               ; preds = %17
  %24 = load ptr, ptr %6, align 8
  %25 = getelementptr inbounds nuw i8, ptr %24, i64 40
  %26 = load i64, ptr %25, align 8
  %27 = icmp ugt i64 %26, 29999
  br i1 %27, label %17, label %.critedge, !llvm.loop !5

.critedge:                                        ; preds = %17, %23
  %28 = load ptr, ptr %9, align 8
  %.not14 = icmp eq ptr %28, null
  br i1 %.not14, label %31, label %29

29:                                               ; preds = %.critedge
  %30 = call i32 @Curl_share_unlock(ptr noundef nonnull %0, i32 noundef 3) #12
  br label %31

31:                                               ; preds = %1, %29, %.critedge
  ret void
}